; Function Attrs: mustprogress nofree norecurse nosync nounwind willreturn memory(argmem: read) uwtable
define noundef range(i32 365, 367) i32 @_ZNK6icu_7717GregorianCalendar10yearLengthEv(ptr noundef nonnull readonly align 8 captures(none) dereferenceable(222) %0) local_unnamed_addr #7 align 2 {
  %2 = getelementptr inbounds nuw i8, ptr %0, i64 12
  %3 = load i32, ptr %2, align 4, !tbaa !32
  %.fr3 = freeze i32 %3
  %4 = getelementptr inbounds nuw i8, ptr %0, i64 216
  %5 = load i32, ptr %4, align 8, !tbaa !22
  %.fr = freeze i32 %5
  %.not.i = icmp slt i32 %.fr3, %.fr
  %6 = and i32 %.fr3, 3
  %7 = icmp eq i32 %6, 0
  %.not6.i = xor i1 %7, true
  %brmerge.i = or i1 %.not.i, %.not6.i
  br i1 %brmerge.i, label %_ZNK6icu_7717GregorianCalendar10isLeapYearEi.exit, label %8

8:                                                ; preds = %1
  %9 = srem i32 %.fr3, 100
  %.not5.i = icmp ne i32 %9, 0
  %10 = srem i32 %.fr3, 400
  %11 = icmp eq i32 %10, 0
  %or.cond = or i1 %.not5.i, %11
  br i1 %or.cond, label %_ZNK6icu_7717GregorianCalendar10isLeapYearEi.exit.thread, label %12

_ZNK6icu_7717GregorianCalendar10isLeapYearEi.exit: ; preds = %1
  %.mux.i = and i1 %.not.i, %7
  br i1 %.mux.i, label %_ZNK6icu_7717GregorianCalendar10isLeapYearEi.exit.thread, label %12

_ZNK6icu_7717GregorianCalendar10isLeapYearEi.exit.thread: ; preds = %8, %_ZNK6icu_7717GregorianCalendar10isLeapYearEi.exit
  br label %12

12:                                               ; preds = %8, %_ZNK6icu_7717GregorianCalendar10isLeapYearEi.exit, %_ZNK6icu_7717GregorianCalendar10isLeapYearEi.exit.thread
  %13 = phi i32 [ 366, %_ZNK6icu_7717GregorianCalendar10isLeapYearEi.exit.thread ], [ 365, %_ZNK6icu_7717GregorianCalendar10isLeapYearEi.exit ], [ 365, %8 ]
  ret i32 %13
}